target datalayout = "e-m:e-p270:32:32-p271:32:32-p272:64:64-i64:64-i128:128-f80:128-n8:16:32:64-S128"
target triple = "x86_64-pc-linux-gnu"

%"class.vcg::Point3" = type { [3 x float] }
%"class.vcg::TrackMode" = type { ptr }
%"class.std::vector" = type { %"struct.std::_Vector_base" }
%"struct.std::_Vector_base" = type { %"struct.std::_Vector_base<vcg::Point3<float>, std::allocator<vcg::Point3<float>>>::_Vector_impl" }
%"struct.std::_Vector_base<vcg::Point3<float>, std::allocator<vcg::Point3<float>>>::_Vector_impl" = type { %"struct.std::_Vector_base<vcg::Point3<float>, std::allocator<vcg::Point3<float>>>::_Vector_impl_data" }
%"struct.std::_Vector_base<vcg::Point3<float>, std::allocator<vcg::Point3<float>>>::_Vector_impl_data" = type { ptr, ptr, ptr }
%"class.vcg::PathMode" = type { %"class.vcg::TrackMode", %"class.std::vector", i8, float, float, float, float, %"class.vcg::Point3", float, %"class.vcg::Point3" }

; Function Attrs: mustprogress nounwind uwtable
define noundef float @_ZN3vcg8PathMode9NormalizeEf(ptr noundef nonnull align 8 dereferenceable(80) %0, float noundef %1) #0 align 2 {
  %3 = alloca float, align 4
  %4 = alloca ptr, align 8
  %5 = alloca float, align 4
  %6 = alloca double, align 8
  %7 = alloca float, align 4
  store ptr %0, ptr %4, align 8
  store float %1, ptr %5, align 4
  %8 = load ptr, ptr %4, align 8
  %9 = getelementptr inbounds %"class.vcg::PathMode", ptr %8, i32 0, i32 2
  %10 = load i8, ptr %9, align 8
  %11 = trunc i8 %10 to i1
  br i1 %11, label %12, label %24

12:                                               ; preds = %2
  %13 = load float, ptr %5, align 4
  %14 = fpext float %13 to double
  %15 = call double @modf(double noundef %14, ptr noundef %6) #7
  %16 = fptrunc double %15 to float
  store float %16, ptr %7, align 4
  %17 = load float, ptr %7, align 4
  %18 = fcmp olt float %17, 0.000000e+00
  br i1 %18, label %19, label %22

19:                                               ; preds = %12
  %20 = load float, ptr %7, align 4
  %21 = fadd float %20, 1.000000e+00
  store float %21, ptr %7, align 4
  br label %22

22:                                               ; preds = %19, %12
  %23 = load float, ptr %7, align 4
  store float %23, ptr %3, align 4
  br label %34

24:                                               ; preds = %2
  %25 = load float, ptr %5, align 4
  %26 = fcmp olt float %25, 0.000000e+00
  br i1 %26, label %27, label %28

27:                                               ; preds = %24
  store float 0.000000e+00, ptr %3, align 4
  br label %34

28:                                               ; preds = %24
  %29 = load float, ptr %5, align 4
  %30 = fcmp ogt float %29, 1.000000e+00
  br i1 %30, label %31, label %32

31:                                               ; preds = %28
  store float 1.000000e+00, ptr %3, align 4
  br label %34

32:                                               ; preds = %28
  %33 = load float, ptr %5, align 4
  store float %33, ptr %3, align 4
  br label %34

34:                                               ; preds = %32, %31, %27, %22
  %35 = load float, ptr %3, align 4
  ret float %35
}