; Function Attrs: mustprogress nofree nounwind willreturn memory(argmem: read) uwtable
define noundef float @_ZN3vcg8PathMode9NormalizeEf(ptr nocapture noundef nonnull readonly align 8 dereferenceable(80) %0, float noundef %1) local_unnamed_addr #25 align 2 {
  %3 = alloca double, align 8
  %4 = getelementptr inbounds i8, ptr %0, i64 32
  %5 = load i8, ptr %4, align 8
  %6 = and i8 %5, 1
  %.not = icmp eq i8 %6, 0
  br i1 %.not, label %13, label %7

7:                                                ; preds = %2
  %8 = fpext float %1 to double
  %9 = call double @modf(double noundef %8, ptr noundef nonnull %3) #34
  %10 = fptrunc double %9 to float
  %11 = fcmp olt float %10, 0.000000e+00
  %12 = fadd float %10, 1.000000e+00
  %.0 = select i1 %11, float %12, float %10
  br label %17

13:                                               ; preds = %2
  %14 = fcmp olt float %1, 0.000000e+00
  br i1 %14, label %17, label %15

15:                                               ; preds = %13
  %16 = fcmp ogt float %1, 1.000000e+00
  %. = select i1 %16, float 1.000000e+00, float %1
  br label %17

17:                                               ; preds = %15, %13, %7
  %.09 = phi float [ %.0, %7 ], [ 0.000000e+00, %13 ], [ %., %15 ]
  ret float %.09
}